; Function Attrs: mustprogress uwtable
define internal void @_ZN3gmx15analysismodules12_GLOBAL__N_15Hbond15optionsFinishedEPNS_26TrajectoryAnalysisSettingsE(ptr nocapture noundef nonnull readonly align 8 dereferenceable(520) %0, ptr nocapture readnone %1) unnamed_addr #3 align 2 personality ptr @__gxx_personality_v0 {
  %3 = alloca %"class.gmx::InconsistentInputError", align 8
  %4 = alloca %"class.gmx::ExceptionInitializer", align 8
  %5 = alloca %"class.gmx::ExceptionInfo", align 8
  %6 = getelementptr inbounds i8, ptr %0, i64 356
  %7 = load float, ptr %6, align 4
  %8 = fcmp olt float %7, 0x3FD6666660000000
  br i1 %8, label %9, label %20

9:                                                ; preds = %2
  %10 = tail call ptr @__cxa_allocate_exception(i64 24) #24
  invoke void @_ZN3gmx20ExceptionInitializerC2EPKc(ptr noundef nonnull align 8 dereferenceable(56) %4, ptr noundef nonnull @.str.35)
          to label %11 unwind label %.thread

11:                                               ; preds = %9
  invoke void @_ZN3gmx16GromacsExceptionC2ERKNS_20ExceptionInitializerE(ptr noundef nonnull align 8 dereferenceable(24) %3, ptr noundef nonnull align 8 dereferenceable(56) %4)
          to label %12 unwind label %.thread13

12:                                               ; preds = %11
  store ptr getelementptr inbounds inrange(-16, 32) ({ [6 x ptr] }, ptr @_ZTVN3gmx22InconsistentInputErrorE, i64 0, i32 0, i64 2), ptr %3, align 8
  store ptr getelementptr inbounds inrange(-16, 16) ({ [4 x ptr] }, ptr @_ZTVN3gmx13ExceptionInfoINS_22ExceptionInfoLocation_ENS_13ThrowLocationEEE, i64 0, i32 0, i64 2), ptr %5, align 8
  %13 = getelementptr inbounds i8, ptr %5, i64 8
  store ptr @__PRETTY_FUNCTION__._ZN3gmx15analysismodules12_GLOBAL__N_15Hbond15optionsFinishedEPNS_26TrajectoryAnalysisSettingsE, ptr %13, align 8
  %.sroa.2.0..sroa_idx = getelementptr inbounds i8, ptr %5, i64 16
  store ptr @.str.36, ptr %.sroa.2.0..sroa_idx, align 8
  %.sroa.3.0..sroa_idx = getelementptr inbounds i8, ptr %5, i64 24
  store i32 377, ptr %.sroa.3.0..sroa_idx, align 8
  invoke void @_ZN3gmxlsINS_22InconsistentInputErrorENS_22ExceptionInfoLocation_ENS_13ThrowLocationEEENSt9enable_ifIXsr3std10is_base_ofINS_16GromacsExceptionET_EE5valueES6_E4typeES6_RKNS_13ExceptionInfoIT0_T1_EE(ptr dead_on_unwind writable sret(%"class.gmx::InconsistentInputError") align 8 %10, ptr noundef nonnull %3, ptr noundef nonnull align 8 dereferenceable(32) %5)
          to label %14 unwind label %17

14:                                               ; preds = %12
  invoke void @__cxa_throw(ptr %10, ptr nonnull @_ZTIN3gmx22InconsistentInputErrorE, ptr nonnull @_ZN3gmx22InconsistentInputErrorD2Ev) #26
          to label %22 unwind label %17

.thread:                                          ; preds = %9
  %15 = landingpad { ptr, i32 }
          cleanup
  br label %19

.thread13:                                        ; preds = %11
  %16 = landingpad { ptr, i32 }
          cleanup
  call void @_ZN3gmx20ExceptionInitializerD2Ev(ptr noundef nonnull align 8 dereferenceable(56) %4) #24
  br label %19

17:                                               ; preds = %12, %14
  %.0 = phi i1 [ false, %14 ], [ true, %12 ]
  %18 = landingpad { ptr, i32 }
          cleanup
  call void @_ZN3gmx8internal14IExceptionInfoD2Ev(ptr noundef nonnull align 8 dereferenceable(8) %5) #24
  call void @_ZN3gmx22InconsistentInputErrorD2Ev(ptr noundef nonnull align 8 dereferenceable(24) %3) #24
  call void @_ZN3gmx20ExceptionInitializerD2Ev(ptr noundef nonnull align 8 dereferenceable(56) %4) #24
  br i1 %.0, label %19, label %21

19:                                               ; preds = %.thread13, %.thread, %17
  %.pn.pn12 = phi { ptr, i32 } [ %15, %.thread ], [ %18, %17 ], [ %16, %.thread13 ]
  call void @__cxa_free_exception(ptr %10) #24
  br label %21

20:                                               ; preds = %2
  ret void

21:                                               ; preds = %17, %19
  %.pn.pn11 = phi { ptr, i32 } [ %18, %17 ], [ %.pn.pn12, %19 ]
  resume { ptr, i32 } %.pn.pn11

22:                                               ; preds = %14
  unreachable
}